target datalayout = "e-m:e-p270:32:32-p271:32:32-p272:64:64-i64:64-i128:128-f80:128-n8:16:32:64-S128"
target triple = "x86_64-pc-linux-gnu"

@hf_gryphon_padding = internal global i32 0, align 4
@hf_gryphon_status_num_running_copies = internal global i32 0, align 4
@hf_gryphon_program_channel_number = internal global i32 0, align 4
@ett_gryphon_pgm_status = internal global i32 0, align 4
@.str.1110 = private unnamed_addr constant [38 x i8] c"Program %u channel (client) number %u\00", align 1

; Function Attrs: null_pointer_is_valid sspstrong uwtable
define internal i32 @resp_status(ptr noundef %0, i32 noundef %1, ptr noundef %2) #0 {
  %4 = alloca ptr, align 8
  %5 = alloca i32, align 4
  %6 = alloca ptr, align 8
  %7 = alloca ptr, align 8
  %8 = alloca ptr, align 8
  %9 = alloca i32, align 4
  %10 = alloca i32, align 4
  %11 = alloca i32, align 4
  %12 = alloca i32, align 4
  store ptr %0, ptr %4, align 8
  store i32 %1, ptr %5, align 4
  store ptr %2, ptr %6, align 8
  call void @llvm.lifetime.start.p0(i64 8, ptr %7) #7
  call void @llvm.lifetime.start.p0(i64 8, ptr %8) #7
  call void @llvm.lifetime.start.p0(i64 4, ptr %9) #7
  call void @llvm.lifetime.start.p0(i64 4, ptr %10) #7
  call void @llvm.lifetime.start.p0(i64 4, ptr %11) #7
  call void @llvm.lifetime.start.p0(i64 4, ptr %12) #7
  %13 = load ptr, ptr %4, align 8
  %14 = load i32, ptr %5, align 4
  %15 = call zeroext i8 @tvb_get_uint8(ptr noundef %13, i32 noundef %14)
  %16 = zext i8 %15 to i32
  store i32 %16, ptr %10, align 4
  %17 = load ptr, ptr %6, align 8
  %18 = load i32, ptr @hf_gryphon_status_num_running_copies, align 4
  %19 = load ptr, ptr %4, align 8
  %20 = load i32, ptr %5, align 4
  %21 = call ptr @proto_tree_add_item(ptr noundef %17, i32 noundef %18, ptr noundef %19, i32 noundef %20, i32 noundef 1, i32 noundef 0)
  store ptr %21, ptr %7, align 8
  %22 = load ptr, ptr %7, align 8
  %23 = load i32, ptr @ett_gryphon_pgm_status, align 4
  %24 = call ptr @proto_item_add_subtree(ptr noundef %22, i32 noundef %23)
  store ptr %24, ptr %8, align 8
  %25 = load i32, ptr %5, align 4
  %26 = add i32 %25, 1
  store i32 %26, ptr %5, align 4
  %27 = load i32, ptr %10, align 4
  %28 = icmp ne i32 %27, 0
  br i1 %28, label %29, label %53

29:                                               ; preds = %3
  store i32 1, ptr %9, align 4
  br label %30

30:                                               ; preds = %49, %29
  %31 = load i32, ptr %9, align 4
  %32 = load i32, ptr %10, align 4
  %33 = icmp ule i32 %31, %32
  br i1 %33, label %34, label %52

34:                                               ; preds = %30
  %35 = load ptr, ptr %4, align 8
  %36 = load i32, ptr %5, align 4
  %37 = call zeroext i8 @tvb_get_uint8(ptr noundef %35, i32 noundef %36)
  %38 = zext i8 %37 to i32
  store i32 %38, ptr %12, align 4
  %39 = load ptr, ptr %8, align 8
  %40 = load i32, ptr @hf_gryphon_program_channel_number, align 4
  %41 = load ptr, ptr %4, align 8
  %42 = load i32, ptr %5, align 4
  %43 = load i32, ptr %12, align 4
  %44 = load i32, ptr %9, align 4
  %45 = load i32, ptr %12, align 4
  %46 = call ptr (ptr, i32, ptr, i32, i32, i32, ptr, ...) @proto_tree_add_uint_format(ptr noundef %39, i32 noundef %40, ptr noundef %41, i32 noundef %42, i32 noundef 1, i32 noundef %43, ptr noundef @.str.1110, i32 noundef %44, i32 noundef %45)
  %47 = load i32, ptr %5, align 4
  %48 = add i32 %47, 1
  store i32 %48, ptr %5, align 4
  br label %49

49:                                               ; preds = %34
  %50 = load i32, ptr %9, align 4
  %51 = add i32 %50, 1
  store i32 %51, ptr %9, align 4
  br label %30, !llvm.loop !44

52:                                               ; preds = %30
  br label %53

53:                                               ; preds = %52, %3
  %54 = load i32, ptr %10, align 4
  %55 = add i32 %54, 1
  %56 = add i32 %55, 3
  %57 = urem i32 %56, 4
  %58 = sub i32 3, %57
  store i32 %58, ptr %11, align 4
  %59 = load i32, ptr %11, align 4
  %60 = icmp ne i32 %59, 0
  br i1 %60, label %61, label %71

61:                                               ; preds = %53
  %62 = load ptr, ptr %6, align 8
  %63 = load i32, ptr @hf_gryphon_padding, align 4
  %64 = load ptr, ptr %4, align 8
  %65 = load i32, ptr %5, align 4
  %66 = load i32, ptr %11, align 4
  %67 = call ptr @proto_tree_add_item(ptr noundef %62, i32 noundef %63, ptr noundef %64, i32 noundef %65, i32 noundef %66, i32 noundef 0)
  %68 = load i32, ptr %11, align 4
  %69 = load i32, ptr %5, align 4
  %70 = add i32 %69, %68
  store i32 %70, ptr %5, align 4
  br label %71

71:                                               ; preds = %61, %53
  %72 = load i32, ptr %5, align 4
  call void @llvm.lifetime.end.p0(i64 4, ptr %12) #7
  call void @llvm.lifetime.end.p0(i64 4, ptr %11) #7
  call void @llvm.lifetime.end.p0(i64 4, ptr %10) #7
  call void @llvm.lifetime.end.p0(i64 4, ptr %9) #7
  call void @llvm.lifetime.end.p0(i64 8, ptr %8) #7
  call void @llvm.lifetime.end.p0(i64 8, ptr %7) #7
  ret i32 %72
}