; Function Attrs: null_pointer_is_valid sspstrong uwtable
define internal fastcc range(i32 17, 276) i32 @resp_status(ptr noundef %0, ptr noundef %1) unnamed_addr #0 {
  %3 = tail call zeroext i8 @tvb_get_uint8(ptr noundef %0, i32 noundef 16)
  %4 = zext i8 %3 to i32
  %5 = load i32, ptr @hf_gryphon_status_num_running_copies, align 4
  %6 = tail call ptr @proto_tree_add_item(ptr noundef %1, i32 noundef %5, ptr noundef %0, i32 noundef 16, i32 noundef 1, i32 noundef 0)
  %7 = load i32, ptr @ett_gryphon_pgm_status, align 4
  %8 = tail call ptr @proto_item_add_subtree(ptr noundef %6, i32 noundef %7)
  %.not = icmp eq i8 %3, 0
  br i1 %.not, label %.thread, label %.preheader.preheader

.preheader.preheader:                             ; preds = %2
  %9 = add nuw nsw i32 %4, 17
  br label %.preheader

.preheader:                                       ; preds = %.preheader.preheader, %.preheader
  %.137 = phi i32 [ %14, %.preheader ], [ 17, %.preheader.preheader ]
  %.02836 = phi i32 [ %15, %.preheader ], [ 1, %.preheader.preheader ]
  %10 = tail call zeroext i8 @tvb_get_uint8(ptr noundef %0, i32 noundef %.137)
  %11 = zext i8 %10 to i32
  %12 = load i32, ptr @hf_gryphon_program_channel_number, align 4
  %13 = tail call ptr (ptr, i32, ptr, i32, i32, i32, ptr, ...) @proto_tree_add_uint_format(ptr noundef %8, i32 noundef %12, ptr noundef %0, i32 noundef %.137, i32 noundef 1, i32 noundef %11, ptr noundef nonnull @.str.1110, i32 noundef %.02836, i32 noundef %11)
  %14 = add nuw nsw i32 %.137, 1
  %15 = add nuw nsw i32 %.02836, 1
  %exitcond.not = icmp eq i32 %14, %9
  br i1 %exitcond.not, label %16, label %.preheader, !llvm.loop !44

16:                                               ; preds = %.preheader
  %17 = and i32 %4, 3
  %.not32 = icmp eq i32 %17, 3
  br i1 %.not32, label %23, label %.thread

.thread:                                          ; preds = %2, %16
  %18 = phi i32 [ %17, %16 ], [ 0, %2 ]
  %.035 = phi i32 [ %9, %16 ], [ 17, %2 ]
  %19 = xor i32 %18, 3
  %20 = load i32, ptr @hf_gryphon_padding, align 4
  %21 = tail call ptr @proto_tree_add_item(ptr noundef %1, i32 noundef %20, ptr noundef %0, i32 noundef %.035, i32 noundef %19, i32 noundef 0)
  %22 = add nuw nsw i32 %.035, %19
  br label %23

23:                                               ; preds = %.thread, %16
  %.2 = phi i32 [ %22, %.thread ], [ %9, %16 ]
  ret i32 %.2
}